target datalayout = "e-m:e-p270:32:32-p271:32:32-p272:64:64-i64:64-f80:128-n8:16:32:64-S128"
target triple = "x86_64-pc-linux-gnu"

@.str = private unnamed_addr constant [6 x i8] c"%d %d\00", align 1
@.str.1 = private unnamed_addr constant [3 x i8] c"%d\00", align 1
@.str.2 = private unnamed_addr constant [4 x i8] c"%d\0A\00", align 1

; Function Attrs: noinline nounwind uwtable
define dso_local i32 @main() #0 {
  %1 = alloca i32, align 4
  %2 = alloca i32, align 4
  %3 = alloca i32, align 4
  %4 = alloca i32, align 4
  %5 = alloca i32, align 4
  %6 = alloca i32, align 4
  %7 = alloca i32, align 4
  %8 = alloca i32, align 4
  %9 = alloca i32, align 4
  %10 = alloca i32, align 4
  %11 = alloca [101 x [101 x i32]], align 16
  %12 = alloca [101 x [101 x i32]], align 16
  store i32 0, i32* %1, align 4
  %13 = bitcast [101 x [101 x i32]]* %11 to i8*
  call void @llvm.memset.p0i8.i64(i8* align 16 %13, i8 0, i64 40804, i1 false)
  %14 = bitcast [101 x [101 x i32]]* %12 to i8*
  call void @llvm.memset.p0i8.i64(i8* align 16 %14, i8 0, i64 40804, i1 false)
  %15 = call i32 (i8*, ...) @__isoc99_scanf(i8* getelementptr inbounds ([6 x i8], [6 x i8]* @.str, i64 0, i64 0), i32* %3, i32* %2)
  store i32 1, i32* %8, align 4
  br label %16

16:                                               ; preds = %37, %0
  %17 = load i32, i32* %8, align 4
  %18 = load i32, i32* %3, align 4
  %19 = icmp sle i32 %17, %18
  br i1 %19, label %20, label %40

20:                                               ; preds = %16
  store i32 1, i32* %6, align 4
  br label %21

21:                                               ; preds = %33, %20
  %22 = load i32, i32* %6, align 4
  %23 = load i32, i32* %2, align 4
  %24 = icmp sle i32 %22, %23
  br i1 %24, label %25, label %36

25:                                               ; preds = %21
  %26 = load i32, i32* %8, align 4
  %27 = sext i32 %26 to i64
  %28 = getelementptr inbounds [101 x [101 x i32]], [101 x [101 x i32]]* %11, i64 0, i64 %27
  %29 = load i32, i32* %6, align 4
  %30 = sext i32 %29 to i64
  %31 = getelementptr inbounds [101 x i32], [101 x i32]* %28, i64 0, i64 %30
  %32 = call i32 (i8*, ...) @__isoc99_scanf(i8* getelementptr inbounds ([3 x i8], [3 x i8]* @.str.1, i64 0, i64 0), i32* %31)
  br label %33

33:                                               ; preds = %25
  %34 = load i32, i32* %6, align 4
  %35 = add nsw i32 %34, 1
  store i32 %35, i32* %6, align 4
  br label %21

36:                                               ; preds = %21
  br label %37

37:                                               ; preds = %36
  %38 = load i32, i32* %8, align 4
  %39 = add nsw i32 %38, 1
  store i32 %39, i32* %8, align 4
  br label %16

40:                                               ; preds = %16
  store i32 1, i32* %8, align 4
  br label %41

41:                                               ; preds = %57, %40
  %42 = load i32, i32* %8, align 4
  %43 = load i32, i32* %3, align 4
  %44 = icmp sle i32 %42, %43
  br i1 %44, label %45, label %60

45:                                               ; preds = %41
  %46 = load i32, i32* %8, align 4
  %47 = sext i32 %46 to i64
  %48 = getelementptr inbounds [101 x [101 x i32]], [101 x [101 x i32]]* %12, i64 0, i64 %47
  %49 = getelementptr inbounds [101 x i32], [101 x i32]* %48, i64 0, i64 0
  store i32 1, i32* %49, align 4
  %50 = load i32, i32* %8, align 4
  %51 = sext i32 %50 to i64
  %52 = getelementptr inbounds [101 x [101 x i32]], [101 x [101 x i32]]* %12, i64 0, i64 %51
  %53 = load i32, i32* %2, align 4
  %54 = add nsw i32 %53, 1
  %55 = sext i32 %54 to i64
  %56 = getelementptr inbounds [101 x i32], [101 x i32]* %52, i64 0, i64 %55
  store i32 1, i32* %56, align 4
  br label %57

57:                                               ; preds = %45
  %58 = load i32, i32* %8, align 4
  %59 = add nsw i32 %58, 1
  store i32 %59, i32* %8, align 4
  br label %41

60:                                               ; preds = %41
  store i32 1, i32* %6, align 4
  br label %61

61:                                               ; preds = %77, %60
  %62 = load i32, i32* %6, align 4
  %63 = load i32, i32* %2, align 4
  %64 = icmp sle i32 %62, %63
  br i1 %64, label %65, label %80

65:                                               ; preds = %61
  %66 = getelementptr inbounds [101 x [101 x i32]], [101 x [101 x i32]]* %12, i64 0, i64 0
  %67 = load i32, i32* %6, align 4
  %68 = sext i32 %67 to i64
  %69 = getelementptr inbounds [101 x i32], [101 x i32]* %66, i64 0, i64 %68
  store i32 1, i32* %69, align 4
  %70 = load i32, i32* %3, align 4
  %71 = add nsw i32 %70, 1
  %72 = sext i32 %71 to i64
  %73 = getelementptr inbounds [101 x [101 x i32]], [101 x [101 x i32]]* %12, i64 0, i64 %72
  %74 = load i32, i32* %6, align 4
  %75 = sext i32 %74 to i64
  %76 = getelementptr inbounds [101 x i32], [101 x i32]* %73, i64 0, i64 %75
  store i32 1, i32* %76, align 4
  br label %77

77:                                               ; preds = %65
  %78 = load i32, i32* %6, align 4
  %79 = add nsw i32 %78, 1
  store i32 %79, i32* %6, align 4
  br label %61

80:                                               ; preds = %61
  store i32 0, i32* %7, align 4
  store i32 1, i32* %8, align 4
  store i32 1, i32* %6, align 4
  br label %81

81:                                               ; preds = %175, %80
  %82 = load i32, i32* %7, align 4
  %83 = load i32, i32* %2, align 4
  %84 = load i32, i32* %3, align 4
  %85 = mul nsw i32 %83, %84
  %86 = icmp slt i32 %82, %85
  br i1 %86, label %87, label %176

87:                                               ; preds = %81
  %88 = load i32, i32* %8, align 4
  %89 = sext i32 %88 to i64
  %90 = getelementptr inbounds [101 x [101 x i32]], [101 x [101 x i32]]* %11, i64 0, i64 %89
  %91 = load i32, i32* %6, align 4
  %92 = sext i32 %91 to i64
  %93 = getelementptr inbounds [101 x i32], [101 x i32]* %90, i64 0, i64 %92
  %94 = load i32, i32* %93, align 4
  %95 = call i32 (i8*, ...) @printf(i8* getelementptr inbounds ([4 x i8], [4 x i8]* @.str.2, i64 0, i64 0), i32 %94)
  %96 = load i32, i32* %7, align 4
  %97 = add nsw i32 %96, 1
  store i32 %97, i32* %7, align 4
  %98 = load i32, i32* %8, align 4
  %99 = sext i32 %98 to i64
  %100 = getelementptr inbounds [101 x [101 x i32]], [101 x [101 x i32]]* %12, i64 0, i64 %99
  %101 = load i32, i32* %6, align 4
  %102 = sext i32 %101 to i64
  %103 = getelementptr inbounds [101 x i32], [101 x i32]* %100, i64 0, i64 %102
  store i32 1, i32* %103, align 4
  %104 = load i32, i32* %8, align 4
  %105 = sub nsw i32 %104, 1
  %106 = sext i32 %105 to i64
  %107 = getelementptr inbounds [101 x [101 x i32]], [101 x [101 x i32]]* %12, i64 0, i64 %106
  %108 = load i32, i32* %6, align 4
  %109 = sext i32 %108 to i64
  %110 = getelementptr inbounds [101 x i32], [101 x i32]* %107, i64 0, i64 %109
  %111 = load i32, i32* %110, align 4
  %112 = icmp eq i32 %111, 1
  br i1 %112, label %113, label %158

113:                                              ; preds = %87
  %114 = load i32, i32* %8, align 4
  %115 = sext i32 %114 to i64
  %116 = getelementptr inbounds [101 x [101 x i32]], [101 x [101 x i32]]* %12, i64 0, i64 %115
  %117 = load i32, i32* %6, align 4
  %118 = sub nsw i32 %117, 1
  %119 = sext i32 %118 to i64
  %120 = getelementptr inbounds [101 x i32], [101 x i32]* %116, i64 0, i64 %119
  %121 = load i32, i32* %120, align 4
  %122 = icmp eq i32 %121, 1
  br i1 %122, label %123, label %140

123:                                              ; preds = %113
  %124 = load i32, i32* %8, align 4
  %125 = sext i32 %124 to i64
  %126 = getelementptr inbounds [101 x [101 x i32]], [101 x [101 x i32]]* %12, i64 0, i64 %125
  %127 = load i32, i32* %6, align 4
  %128 = add nsw i32 %127, 1
  %129 = sext i32 %128 to i64
  %130 = getelementptr inbounds [101 x i32], [101 x i32]* %126, i64 0, i64 %129
  %131 = load i32, i32* %130, align 4
  %132 = icmp eq i32 %131, 0
  br i1 %132, label %133, label %136

133:                                              ; preds = %123
  %134 = load i32, i32* %6, align 4
  %135 = add nsw i32 %134, 1
  store i32 %135, i32* %6, align 4
  br label %139

136:                                              ; preds = %123
  %137 = load i32, i32* %8, align 4
  %138 = add nsw i32 %137, 1
  store i32 %138, i32* %8, align 4
  br label %139

139:                                              ; preds = %136, %133
  br label %157

140:                                              ; preds = %113
  %141 = load i32, i32* %8, align 4
  %142 = add nsw i32 %141, 1
  %143 = sext i32 %142 to i64
  %144 = getelementptr inbounds [101 x [101 x i32]], [101 x [101 x i32]]* %12, i64 0, i64 %143
  %145 = load i32, i32* %6, align 4
  %146 = sext i32 %145 to i64
  %147 = getelementptr inbounds [101 x i32], [101 x i32]* %144, i64 0, i64 %146
  %148 = load i32, i32* %147, align 4
  %149 = icmp eq i32 %148, 0
  br i1 %149, label %150, label %153

150:                                              ; preds = %140
  %151 = load i32, i32* %8, align 4
  %152 = add nsw i32 %151, 1
  store i32 %152, i32* %8, align 4
  br label %156

153:                                              ; preds = %140
  %154 = load i32, i32* %6, align 4
  %155 = add nsw i32 %154, -1
  store i32 %155, i32* %6, align 4
  br label %156

156:                                              ; preds = %153, %150
  br label %157

157:                                              ; preds = %156, %139
  br label %175

158:                                              ; preds = %87
  %159 = load i32, i32* %8, align 4
  %160 = sext i32 %159 to i64
  %161 = getelementptr inbounds [101 x [101 x i32]], [101 x [101 x i32]]* %12, i64 0, i64 %160
  %162 = load i32, i32* %6, align 4
  %163 = sub nsw i32 %162, 1
  %164 = sext i32 %163 to i64
  %165 = getelementptr inbounds [101 x i32], [101 x i32]* %161, i64 0, i64 %164
  %166 = load i32, i32* %165, align 4
  %167 = icmp eq i32 %166, 0
  br i1 %167, label %168, label %171

168:                                              ; preds = %158
  %169 = load i32, i32* %6, align 4
  %170 = add nsw i32 %169, -1
  store i32 %170, i32* %6, align 4
  br label %174

171:                                              ; preds = %158
  %172 = load i32, i32* %8, align 4
  %173 = add nsw i32 %172, -1
  store i32 %173, i32* %8, align 4
  br label %174

174:                                              ; preds = %171, %168
  br label %175

175:                                              ; preds = %174, %157
  br label %81

176:                                              ; preds = %81
  ret i32 0
}